; ModuleID = 'source-C-CXX/51/3405.cpp'
source_filename = "source-C-CXX/51/3405.cpp"
target datalayout = "e-m:e-p270:32:32-p271:32:32-p272:64:64-i64:64-f80:128-n8:16:32:64-S128"
target triple = "x86_64-pc-linux-gnu"

%"class.std::ios_base::Init" = type { i8 }
%"class.std::basic_istream" = type { i32 (...)**, i64, %"class.std::basic_ios" }
%"class.std::basic_ios" = type { %"class.std::ios_base", %"class.std::basic_ostream"*, i8, i8, %"class.std::basic_streambuf"*, %"class.std::ctype"*, %"class.std::num_put"*, %"class.std::num_get"* }
%"class.std::ios_base" = type { i32 (...)**, i64, i64, i32, i32, i32, %"struct.std::ios_base::_Callback_list"*, %"struct.std::ios_base::_Words", [8 x %"struct.std::ios_base::_Words"], i32, %"struct.std::ios_base::_Words"*, %"class.std::locale" }
%"struct.std::ios_base::_Callback_list" = type { %"struct.std::ios_base::_Callback_list"*, void (i32, %"class.std::ios_base"*, i32)*, i32, i32 }
%"struct.std::ios_base::_Words" = type { i8*, i64 }
%"class.std::locale" = type { %"class.std::locale::_Impl"* }
%"class.std::locale::_Impl" = type { i32, %"class.std::locale::facet"**, i64, %"class.std::locale::facet"**, i8** }
%"class.std::locale::facet" = type <{ i32 (...)**, i32, [4 x i8] }>
%"class.std::basic_ostream" = type { i32 (...)**, %"class.std::basic_ios" }
%"class.std::basic_streambuf" = type { i32 (...)**, i8*, i8*, i8*, i8*, i8*, i8*, %"class.std::locale" }
%"class.std::ctype" = type <{ %"class.std::locale::facet.base", [4 x i8], %struct.__locale_struct*, i8, [7 x i8], i32*, i32*, i16*, i8, [256 x i8], [256 x i8], i8, [6 x i8] }>
%"class.std::locale::facet.base" = type <{ i32 (...)**, i32 }>
%struct.__locale_struct = type { [13 x %struct.__locale_data*], i16*, i32*, i32*, [13 x i8*] }
%struct.__locale_data = type opaque
%"class.std::num_put" = type { %"class.std::locale::facet.base", [4 x i8] }
%"class.std::num_get" = type { %"class.std::locale::facet.base", [4 x i8] }

@_ZStL8__ioinit = internal global %"class.std::ios_base::Init" zeroinitializer, align 1
@__dso_handle = external hidden global i8
@_ZSt3cin = external global %"class.std::basic_istream", align 8
@_ZSt4cout = external global %"class.std::basic_ostream", align 8
@.str = private unnamed_addr constant [2 x i8] c" \00", align 1
@llvm.global_ctors = appending global [1 x { i32, void ()*, i8* }] [{ i32, void ()*, i8* } { i32 65535, void ()* @_GLOBAL__sub_I_3405.cpp, i8* null }]

declare void @_ZNSt8ios_base4InitC1Ev(%"class.std::ios_base::Init"* nonnull align 1 dereferenceable(1)) unnamed_addr #0

; Function Attrs: nounwind
declare void @_ZNSt8ios_base4InitD1Ev(%"class.std::ios_base::Init"* nonnull align 1 dereferenceable(1)) unnamed_addr #1

; Function Attrs: nofree nounwind
declare i32 @__cxa_atexit(void (i8*)*, i8*, i8*) local_unnamed_addr #2

; Function Attrs: mustprogress norecurse sspstrong uwtable
define dso_local i32 @main() local_unnamed_addr #3 {
  %1 = alloca i32, align 4
  %2 = alloca i32, align 4
  %3 = alloca [100 x i32], align 16
  %4 = bitcast [100 x i32]* %3 to i8*
  %5 = bitcast i32* %1 to i8*
  call void @llvm.lifetime.start.p0i8(i64 4, i8* nonnull %5) #7
  %6 = bitcast i32* %2 to i8*
  call void @llvm.lifetime.start.p0i8(i64 4, i8* nonnull %6) #7
  call void @llvm.lifetime.start.p0i8(i64 400, i8* nonnull %4) #7
  %7 = call nonnull align 8 dereferenceable(16) %"class.std::basic_istream"* @_ZNSirsERi(%"class.std::basic_istream"* nonnull align 8 dereferenceable(16) @_ZSt3cin, i32* nonnull align 4 dereferenceable(4) %1)
  %8 = call nonnull align 8 dereferenceable(16) %"class.std::basic_istream"* @_ZNSirsERi(%"class.std::basic_istream"* nonnull align 8 dereferenceable(16) %7, i32* nonnull align 4 dereferenceable(4) %2)
  %9 = load i32, i32* %1, align 4, !tbaa !5
  %10 = icmp sgt i32 %9, 0
  br i1 %10, label %11, label %19

11:                                               ; preds = %0, %11
  %12 = phi i64 [ %15, %11 ], [ 0, %0 ]
  %13 = getelementptr inbounds [100 x i32], [100 x i32]* %3, i64 0, i64 %12
  %14 = call nonnull align 8 dereferenceable(16) %"class.std::basic_istream"* @_ZNSirsERi(%"class.std::basic_istream"* nonnull align 8 dereferenceable(16) @_ZSt3cin, i32* nonnull align 4 dereferenceable(4) %13)
  %15 = add nuw nsw i64 %12, 1
  %16 = load i32, i32* %1, align 4, !tbaa !5
  %17 = sext i32 %16 to i64
  %18 = icmp slt i64 %15, %17
  br i1 %18, label %11, label %19, !llvm.loop !9

19:                                               ; preds = %11, %0
  %20 = phi i32 [ %9, %0 ], [ %16, %11 ]
  %21 = sext i32 %20 to i64
  %22 = getelementptr inbounds [100 x i32], [100 x i32]* %3, i64 0, i64 0
  %23 = load i32, i32* %2, align 4, !tbaa !5
  %24 = getelementptr inbounds [100 x i32], [100 x i32]* %3, i64 0, i64 %21
  %25 = getelementptr inbounds i32, i32* %24, i64 -1
  %26 = icmp sgt i32 %20, %23
  br i1 %26, label %27, label %76

27:                                               ; preds = %19
  %28 = icmp slt i32 %20, 2
  br i1 %28, label %42, label %29

29:                                               ; preds = %27
  %30 = getelementptr inbounds [100 x i32], [100 x i32]* %3, i64 0, i64 1
  %31 = bitcast i32* %30 to i8*
  %32 = add nsw i32 %20, -1
  %33 = zext i32 %32 to i64
  %34 = shl nuw nsw i64 %33, 2
  %35 = sub i32 %20, %23
  %36 = xor i32 %23, -1
  %37 = add i32 %20, %36
  %38 = and i32 %35, 3
  %39 = icmp ult i32 %37, 3
  br i1 %39, label %69, label %40

40:                                               ; preds = %29
  %41 = and i32 %35, -4
  br label %78

42:                                               ; preds = %27
  %43 = sub i32 %20, %23
  %44 = xor i32 %23, -1
  %45 = add i32 %20, %44
  %46 = and i32 %43, 7
  %47 = icmp ult i32 %45, 7
  br i1 %47, label %62, label %48

48:                                               ; preds = %42
  %49 = and i32 %43, -8
  br label %50

50:                                               ; preds = %50, %48
  %51 = phi i32 [ %49, %48 ], [ %60, %50 ]
  %52 = load i32, i32* %22, align 16, !tbaa !5
  store i32 %52, i32* %25, align 4, !tbaa !5
  %53 = load i32, i32* %22, align 16, !tbaa !5
  store i32 %53, i32* %25, align 4, !tbaa !5
  %54 = load i32, i32* %22, align 16, !tbaa !5
  store i32 %54, i32* %25, align 4, !tbaa !5
  %55 = load i32, i32* %22, align 16, !tbaa !5
  store i32 %55, i32* %25, align 4, !tbaa !5
  %56 = load i32, i32* %22, align 16, !tbaa !5
  store i32 %56, i32* %25, align 4, !tbaa !5
  %57 = load i32, i32* %22, align 16, !tbaa !5
  store i32 %57, i32* %25, align 4, !tbaa !5
  %58 = load i32, i32* %22, align 16, !tbaa !5
  store i32 %58, i32* %25, align 4, !tbaa !5
  %59 = load i32, i32* %22, align 16, !tbaa !5
  store i32 %59, i32* %25, align 4, !tbaa !5
  %60 = add i32 %51, -8
  %61 = icmp eq i32 %60, 0
  br i1 %61, label %62, label %50, !llvm.loop !11

62:                                               ; preds = %50, %42
  %63 = icmp eq i32 %46, 0
  br i1 %63, label %76, label %64

64:                                               ; preds = %62, %64
  %65 = phi i32 [ %67, %64 ], [ %46, %62 ]
  %66 = load i32, i32* %22, align 16, !tbaa !5
  store i32 %66, i32* %25, align 4, !tbaa !5
  %67 = add i32 %65, -1
  %68 = icmp eq i32 %67, 0
  br i1 %68, label %76, label %64, !llvm.loop !12

69:                                               ; preds = %78, %29
  %70 = icmp eq i32 %38, 0
  br i1 %70, label %76, label %71

71:                                               ; preds = %69, %71
  %72 = phi i32 [ %74, %71 ], [ %38, %69 ]
  %73 = load i32, i32* %22, align 16, !tbaa !5
  call void @llvm.memmove.p0i8.p0i8.i64(i8* nonnull align 16 %4, i8* nonnull align 4 %31, i64 %34, i1 false)
  store i32 %73, i32* %25, align 4, !tbaa !5
  %74 = add i32 %72, -1
  %75 = icmp eq i32 %74, 0
  br i1 %75, label %76, label %71, !llvm.loop !14

76:                                               ; preds = %69, %71, %62, %64, %19
  %77 = icmp slt i32 %20, 2
  br i1 %77, label %99, label %86

78:                                               ; preds = %78, %40
  %79 = phi i32 [ %41, %40 ], [ %84, %78 ]
  %80 = load i32, i32* %22, align 16, !tbaa !5
  call void @llvm.memmove.p0i8.p0i8.i64(i8* nonnull align 16 %4, i8* nonnull align 4 %31, i64 %34, i1 false)
  store i32 %80, i32* %25, align 4, !tbaa !5
  %81 = load i32, i32* %22, align 16, !tbaa !5
  call void @llvm.memmove.p0i8.p0i8.i64(i8* nonnull align 16 %4, i8* nonnull align 4 %31, i64 %34, i1 false)
  store i32 %81, i32* %25, align 4, !tbaa !5
  %82 = load i32, i32* %22, align 16, !tbaa !5
  call void @llvm.memmove.p0i8.p0i8.i64(i8* nonnull align 16 %4, i8* nonnull align 4 %31, i64 %34, i1 false)
  store i32 %82, i32* %25, align 4, !tbaa !5
  %83 = load i32, i32* %22, align 16, !tbaa !5
  call void @llvm.memmove.p0i8.p0i8.i64(i8* nonnull align 16 %4, i8* nonnull align 4 %31, i64 %34, i1 false)
  store i32 %83, i32* %25, align 4, !tbaa !5
  %84 = add i32 %79, -4
  %85 = icmp eq i32 %84, 0
  br i1 %85, label %69, label %78, !llvm.loop !11

86:                                               ; preds = %76, %86
  %87 = phi i64 [ %92, %86 ], [ 0, %76 ]
  %88 = getelementptr inbounds [100 x i32], [100 x i32]* %3, i64 0, i64 %87
  %89 = load i32, i32* %88, align 4, !tbaa !5
  %90 = call nonnull align 8 dereferenceable(8) %"class.std::basic_ostream"* @_ZNSolsEi(%"class.std::basic_ostream"* nonnull align 8 dereferenceable(8) @_ZSt4cout, i32 %89)
  %91 = call nonnull align 8 dereferenceable(8) %"class.std::basic_ostream"* @_ZSt16__ostream_insertIcSt11char_traitsIcEERSt13basic_ostreamIT_T0_ES6_PKS3_l(%"class.std::basic_ostream"* nonnull align 8 dereferenceable(8) %90, i8* nonnull getelementptr inbounds ([2 x i8], [2 x i8]* @.str, i64 0, i64 0), i64 1)
  %92 = add nuw nsw i64 %87, 1
  %93 = load i32, i32* %1, align 4, !tbaa !5
  %94 = add nsw i32 %93, -2
  %95 = sext i32 %94 to i64
  %96 = icmp slt i64 %87, %95
  br i1 %96, label %86, label %97, !llvm.loop !15

97:                                               ; preds = %86
  %98 = sext i32 %93 to i64
  br label %99

99:                                               ; preds = %97, %76
  %100 = phi i64 [ %98, %97 ], [ %21, %76 ]
  %101 = getelementptr inbounds [100 x i32], [100 x i32]* %3, i64 0, i64 %100
  %102 = getelementptr inbounds i32, i32* %101, i64 -1
  %103 = load i32, i32* %102, align 4, !tbaa !5
  %104 = call nonnull align 8 dereferenceable(8) %"class.std::basic_ostream"* @_ZNSolsEi(%"class.std::basic_ostream"* nonnull align 8 dereferenceable(8) @_ZSt4cout, i32 %103)
  call void @llvm.lifetime.end.p0i8(i64 400, i8* nonnull %4) #7
  call void @llvm.lifetime.end.p0i8(i64 4, i8* nonnull %6) #7
  call void @llvm.lifetime.end.p0i8(i64 4, i8* nonnull %5) #7
  ret i32 0
}

; Function Attrs: argmemonly mustprogress nofree nosync nounwind willreturn
declare void @llvm.lifetime.start.p0i8(i64 immarg, i8* nocapture) #4

declare nonnull align 8 dereferenceable(16) %"class.std::basic_istream"* @_ZNSirsERi(%"class.std::basic_istream"* nonnull align 8 dereferenceable(16), i32* nonnull align 4 dereferenceable(4)) local_unnamed_addr #0

declare nonnull align 8 dereferenceable(8) %"class.std::basic_ostream"* @_ZNSolsEi(%"class.std::basic_ostream"* nonnull align 8 dereferenceable(8), i32) local_unnamed_addr #0

; Function Attrs: argmemonly mustprogress nofree nosync nounwind willreturn
declare void @llvm.lifetime.end.p0i8(i64 immarg, i8* nocapture) #4

declare nonnull align 8 dereferenceable(8) %"class.std::basic_ostream"* @_ZSt16__ostream_insertIcSt11char_traitsIcEERSt13basic_ostreamIT_T0_ES6_PKS3_l(%"class.std::basic_ostream"* nonnull align 8 dereferenceable(8), i8*, i64) local_unnamed_addr #0

; Function Attrs: sspstrong uwtable
define internal void @_GLOBAL__sub_I_3405.cpp() #5 section ".text.startup" {
  tail call void @_ZNSt8ios_base4InitC1Ev(%"class.std::ios_base::Init"* nonnull align 1 dereferenceable(1) @_ZStL8__ioinit)
  %1 = tail call i32 @__cxa_atexit(void (i8*)* bitcast (void (%"class.std::ios_base::Init"*)* @_ZNSt8ios_base4InitD1Ev to void (i8*)*), i8* getelementptr inbounds (%"class.std::ios_base::Init", %"class.std::ios_base::Init"* @_ZStL8__ioinit, i64 0, i32 0), i8* nonnull @__dso_handle) #7
  ret void
}

; Function Attrs: argmemonly nofree nounwind willreturn
declare void @llvm.memmove.p0i8.p0i8.i64(i8* nocapture writeonly, i8* nocapture readonly, i64, i1 immarg) #6


!llvm.module.flags = !{!0, !1, !2, !3}
!llvm.ident = !{!4}

!0 = !{i32 1, !"wchar_size", i32 4}
!1 = !{i32 7, !"PIC Level", i32 2}
!2 = !{i32 7, !"PIE Level", i32 2}
!3 = !{i32 7, !"uwtable", i32 1}
!4 = !{!"clang version 13.0.0"}
!5 = !{!6, !6, i64 0}
!6 = !{!"int", !7, i64 0}
!7 = !{!"omnipotent char", !8, i64 0}
!8 = !{!"Simple C++ TBAA"}
!9 = distinct !{!9, !10}
!10 = !{!"llvm.loop.mustprogress"}
!11 = distinct !{!11, !10}
!12 = distinct !{!12, !13}
!13 = !{!"llvm.loop.unroll.disable"}
!14 = distinct !{!14, !13}
!15 = distinct !{!15, !10}
